target datalayout = "e-m:e-p270:32:32-p271:32:32-p272:64:64-i64:64-i128:128-f80:128-n8:16:32:64-S128"
target triple = "x86_64-pc-linux-gnu"

@SysCacheRelationOidSize = internal global i32 0, align 4
@SysCacheRelationOid = internal global [85 x i32] zeroinitializer, align 16

; Function Attrs: nounwind uwtable
define dso_local zeroext i1 @RelationHasSysCache(i32 noundef %0) #0 {
  %2 = alloca i1, align 1
  %3 = alloca i32, align 4
  %4 = alloca i32, align 4
  %5 = alloca i32, align 4
  %6 = alloca i32, align 4
  %7 = alloca i32, align 4
  store i32 %0, ptr %3, align 4
  call void @llvm.lifetime.start.p0(i64 4, ptr %4) #6
  store i32 0, ptr %4, align 4
  call void @llvm.lifetime.start.p0(i64 4, ptr %5) #6
  %8 = load i32, ptr @SysCacheRelationOidSize, align 4
  %9 = sub i32 %8, 1
  store i32 %9, ptr %5, align 4
  br label %10

10:                                               ; preds = %44, %1
  %11 = load i32, ptr %4, align 4
  %12 = load i32, ptr %5, align 4
  %13 = icmp sle i32 %11, %12
  br i1 %13, label %14, label %45

14:                                               ; preds = %10
  call void @llvm.lifetime.start.p0(i64 4, ptr %6) #6
  %15 = load i32, ptr %4, align 4
  %16 = load i32, ptr %5, align 4
  %17 = load i32, ptr %4, align 4
  %18 = sub i32 %16, %17
  %19 = sdiv i32 %18, 2
  %20 = add i32 %15, %19
  store i32 %20, ptr %6, align 4
  %21 = load i32, ptr %6, align 4
  %22 = sext i32 %21 to i64
  %23 = getelementptr inbounds [85 x i32], ptr @SysCacheRelationOid, i64 0, i64 %22
  %24 = load i32, ptr %23, align 4
  %25 = load i32, ptr %3, align 4
  %26 = icmp eq i32 %24, %25
  br i1 %26, label %27, label %28

27:                                               ; preds = %14
  store i1 true, ptr %2, align 1
  store i32 1, ptr %7, align 4
  br label %42

28:                                               ; preds = %14
  %29 = load i32, ptr %6, align 4
  %30 = sext i32 %29 to i64
  %31 = getelementptr inbounds [85 x i32], ptr @SysCacheRelationOid, i64 0, i64 %30
  %32 = load i32, ptr %31, align 4
  %33 = load i32, ptr %3, align 4
  %34 = icmp ult i32 %32, %33
  br i1 %34, label %35, label %38

35:                                               ; preds = %28
  %36 = load i32, ptr %6, align 4
  %37 = add i32 %36, 1
  store i32 %37, ptr %4, align 4
  br label %41

38:                                               ; preds = %28
  %39 = load i32, ptr %6, align 4
  %40 = sub i32 %39, 1
  store i32 %40, ptr %5, align 4
  br label %41

41:                                               ; preds = %38, %35
  store i32 0, ptr %7, align 4
  br label %42

42:                                               ; preds = %41, %27
  call void @llvm.lifetime.end.p0(i64 4, ptr %6) #6
  %43 = load i32, ptr %7, align 4
  switch i32 %43, label %46 [
    i32 0, label %44
  ]

44:                                               ; preds = %42
  br label %10, !llvm.loop !10

45:                                               ; preds = %10
  store i1 false, ptr %2, align 1
  store i32 1, ptr %7, align 4
  br label %46

46:                                               ; preds = %45, %42
  call void @llvm.lifetime.end.p0(i64 4, ptr %5) #6
  call void @llvm.lifetime.end.p0(i64 4, ptr %4) #6
  %47 = load i1, ptr %2, align 1
  ret i1 %47
}